target datalayout = "e-m:e-p270:32:32-p271:32:32-p272:64:64-i64:64-i128:128-f80:128-n8:16:32:64-S128"
target triple = "x86_64-pc-linux-gnu"

; Function Attrs: mustprogress nounwind uwtable
define noundef zeroext i1 @_ZNK7glslang13TIntermediate22isFPIntegralConversionENS_10TBasicTypeES1_(ptr noundef nonnull align 8 dereferenceable(2024) %0, i32 noundef %1, i32 noundef %2) #0 align 2 {
  %4 = alloca i1, align 1
  %5 = alloca ptr, align 8
  %6 = alloca i32, align 4
  %7 = alloca i32, align 4
  store ptr %0, ptr %5, align 8
  store i32 %1, ptr %6, align 4
  store i32 %2, ptr %7, align 4
  %8 = load i32, ptr %6, align 4
  switch i32 %8, label %24 [
    i32 8, label %9
    i32 9, label %9
    i32 4, label %14
    i32 5, label %14
    i32 6, label %14
    i32 7, label %14
    i32 10, label %19
    i32 11, label %19
  ]

9:                                                ; preds = %3, %3
  %10 = load i32, ptr %7, align 4
  switch i32 %10, label %12 [
    i32 1, label %11
    i32 2, label %11
  ]

11:                                               ; preds = %9, %9
  store i1 true, ptr %4, align 1
  br label %26

12:                                               ; preds = %9
  br label %13

13:                                               ; preds = %12
  br label %25

14:                                               ; preds = %3, %3, %3, %3
  %15 = load i32, ptr %7, align 4
  switch i32 %15, label %17 [
    i32 3, label %16
    i32 1, label %16
    i32 2, label %16
  ]

16:                                               ; preds = %14, %14, %14
  store i1 true, ptr %4, align 1
  br label %26

17:                                               ; preds = %14
  br label %18

18:                                               ; preds = %17
  br label %25

19:                                               ; preds = %3, %3
  %20 = load i32, ptr %7, align 4
  %21 = icmp eq i32 %20, 2
  br i1 %21, label %22, label %23

22:                                               ; preds = %19
  store i1 true, ptr %4, align 1
  br label %26

23:                                               ; preds = %19
  br label %25

24:                                               ; preds = %3
  br label %25

25:                                               ; preds = %24, %23, %18, %13
  store i1 false, ptr %4, align 1
  br label %26

26:                                               ; preds = %25, %22, %16, %11
  %27 = load i1, ptr %4, align 1
  ret i1 %27
}