; Function Attrs: mustprogress nofree norecurse nosync nounwind willreturn memory(none) uwtable
define noundef zeroext i1 @_ZNK7glslang13TIntermediate22isFPIntegralConversionENS_10TBasicTypeES1_(ptr nocapture noundef nonnull readnone align 8 dereferenceable(2024) %0, i32 noundef %1, i32 noundef %2) local_unnamed_addr #2 align 2 {
  switch i32 %1, label %8 [
    i32 8, label %4
    i32 9, label %4
    i32 4, label %5
    i32 5, label %5
    i32 6, label %5
    i32 7, label %5
    i32 10, label %6
    i32 11, label %6
  ]

4:                                                ; preds = %3, %3
  %.off = add i32 %2, -1
  %switch = icmp ult i32 %.off, 2
  br i1 %switch, label %9, label %8

5:                                                ; preds = %3, %3, %3, %3
  %.off4 = add i32 %2, -1
  %switch5 = icmp ult i32 %.off4, 3
  br i1 %switch5, label %9, label %8

6:                                                ; preds = %3, %3
  %7 = icmp eq i32 %2, 2
  br i1 %7, label %9, label %8

8:                                                ; preds = %5, %4, %3, %6
  br label %9

9:                                                ; preds = %6, %5, %4, %8
  %.0 = phi i1 [ false, %8 ], [ true, %4 ], [ true, %5 ], [ true, %6 ]
  ret i1 %.0
}